target datalayout = "e-m:e-p270:32:32-p271:32:32-p272:64:64-i64:64-i128:128-f80:128-n8:16:32:64-S128"
target triple = "x86_64-pc-linux-gnu"

%struct.AudioDSPContext = type { ptr, ptr, ptr }

; Function Attrs: alwaysinline nounwind uwtable
define internal double @ff_exp10(double noundef %0) #3 {
  %2 = alloca double, align 8
  store double %0, ptr %2, align 8, !tbaa !20
  %3 = load double, ptr %2, align 8, !tbaa !20
  %4 = fmul nsz double 0x400A934F0979A371, %3
  %5 = call nsz double @llvm.exp2.f64(double %4)
  ret double %5
}

; Function Attrs: nounwind uwtable
define signext i16 @ff_acelp_decode_gain_code(ptr noundef %0, i32 noundef %1, ptr noundef %2, i32 noundef %3, ptr noundef %4, ptr noundef %5, i32 noundef %6, i32 noundef %7) #0 {
  %9 = alloca ptr, align 8
  %10 = alloca i32, align 4
  %11 = alloca ptr, align 8
  %12 = alloca i32, align 4
  %13 = alloca ptr, align 8
  %14 = alloca ptr, align 8
  %15 = alloca i32, align 4
  %16 = alloca i32, align 4
  %17 = alloca i32, align 4
  store ptr %0, ptr %9, align 8, !tbaa !15
  store i32 %1, ptr %10, align 4, !tbaa !9
  store ptr %2, ptr %11, align 8, !tbaa !4
  store i32 %3, ptr %12, align 4, !tbaa !9
  store ptr %4, ptr %13, align 8, !tbaa !4
  store ptr %5, ptr %14, align 8, !tbaa !4
  store i32 %6, ptr %15, align 4, !tbaa !9
  store i32 %7, ptr %16, align 4, !tbaa !9
  call void @llvm.lifetime.start.p0(i64 4, ptr %17) #7
  %18 = load i32, ptr %12, align 4, !tbaa !9
  %19 = shl i32 %18, 10
  store i32 %19, ptr %12, align 4, !tbaa !9
  store i32 0, ptr %17, align 4, !tbaa !9
  br label %20

20:                                               ; preds = %40, %8
  %21 = load i32, ptr %17, align 4, !tbaa !9
  %22 = load i32, ptr %16, align 4, !tbaa !9
  %23 = icmp slt i32 %21, %22
  br i1 %23, label %24, label %43

24:                                               ; preds = %20
  %25 = load ptr, ptr %13, align 8, !tbaa !4
  %26 = load i32, ptr %17, align 4, !tbaa !9
  %27 = sext i32 %26 to i64
  %28 = getelementptr inbounds i16, ptr %25, i64 %27
  %29 = load i16, ptr %28, align 2, !tbaa !11
  %30 = sext i16 %29 to i32
  %31 = load ptr, ptr %14, align 8, !tbaa !4
  %32 = load i32, ptr %17, align 4, !tbaa !9
  %33 = sext i32 %32 to i64
  %34 = getelementptr inbounds i16, ptr %31, i64 %33
  %35 = load i16, ptr %34, align 2, !tbaa !11
  %36 = sext i16 %35 to i32
  %37 = mul nsw i32 %30, %36
  %38 = load i32, ptr %12, align 4, !tbaa !9
  %39 = add nsw i32 %38, %37
  store i32 %39, ptr %12, align 4, !tbaa !9
  br label %40

40:                                               ; preds = %24
  %41 = load i32, ptr %17, align 4, !tbaa !9
  %42 = add nsw i32 %41, 1
  store i32 %42, ptr %17, align 4, !tbaa !9
  br label %20, !llvm.loop !17

43:                                               ; preds = %20
  %44 = load i32, ptr %10, align 4, !tbaa !9
  %45 = sitofp i32 %44 to double
  %46 = load i32, ptr %12, align 4, !tbaa !9
  %47 = sitofp i32 %46 to double
  %48 = fdiv nsz double %47, 0x41A4000000000000
  %49 = call nsz double @ff_exp10(double noundef %48)
  %50 = fmul nsz double %45, %49
  %51 = load ptr, ptr %9, align 8, !tbaa !15
  %52 = getelementptr inbounds nuw %struct.AudioDSPContext, ptr %51, i32 0, i32 0
  %53 = load ptr, ptr %52, align 8, !tbaa !18
  %54 = load ptr, ptr %11, align 8, !tbaa !4
  %55 = load ptr, ptr %11, align 8, !tbaa !4
  %56 = load i32, ptr %15, align 4, !tbaa !9
  %57 = call i32 %53(ptr noundef %54, ptr noundef %55, i32 noundef %56)
  %58 = sitofp i32 %57 to double
  %59 = call nsz double @llvm.sqrt.f64(double %58)
  %60 = fdiv nsz double %50, %59
  %61 = fptosi double %60 to i32
  store i32 %61, ptr %12, align 4, !tbaa !9
  %62 = load i32, ptr %12, align 4, !tbaa !9
  %63 = ashr i32 %62, 12
  %64 = trunc i32 %63 to i16
  call void @llvm.lifetime.end.p0(i64 4, ptr %17) #7
  ret i16 %64
}