; Function Attrs: nounwind uwtable
define signext i16 @ff_acelp_decode_gain_code(ptr noundef readonly captures(none) %0, i32 noundef %1, ptr noundef %2, i32 noundef %3, ptr noundef readonly captures(none) %4, ptr noundef readonly captures(none) %5, i32 noundef %6, i32 noundef %7) local_unnamed_addr #0 {
  %9 = shl i32 %3, 10
  %10 = icmp sgt i32 %7, 0
  br i1 %10, label %.lr.ph.preheader, label %._crit_edge

.lr.ph.preheader:                                 ; preds = %8
  %wide.trip.count = zext nneg i32 %7 to i64
  br label %.lr.ph

.lr.ph:                                           ; preds = %.lr.ph.preheader, %.lr.ph
  %indvars.iv = phi i64 [ 0, %.lr.ph.preheader ], [ %indvars.iv.next, %.lr.ph ]
  %.01516 = phi i32 [ %9, %.lr.ph.preheader ], [ %18, %.lr.ph ]
  %11 = getelementptr inbounds nuw i16, ptr %4, i64 %indvars.iv
  %12 = load i16, ptr %11, align 2, !tbaa !4
  %13 = sext i16 %12 to i32
  %14 = getelementptr inbounds nuw i16, ptr %5, i64 %indvars.iv
  %15 = load i16, ptr %14, align 2, !tbaa !4
  %16 = sext i16 %15 to i32
  %17 = mul nsw i32 %16, %13
  %18 = add nsw i32 %17, %.01516
  %indvars.iv.next = add nuw nsw i64 %indvars.iv, 1
  %exitcond.not = icmp eq i64 %indvars.iv.next, %wide.trip.count
  br i1 %exitcond.not, label %._crit_edge, label %.lr.ph, !llvm.loop !10

._crit_edge:                                      ; preds = %.lr.ph, %8
  %.015.lcssa = phi i32 [ %9, %8 ], [ %18, %.lr.ph ]
  %19 = sitofp i32 %1 to double
  %20 = sitofp i32 %.015.lcssa to double
  %21 = fdiv nsz double %20, 0x41A4000000000000
  %22 = fmul nsz double %21, 0x400A934F0979A371
  %23 = tail call nsz double @llvm.exp2.f64(double %22)
  %24 = fmul nsz double %23, %19
  %25 = load ptr, ptr %0, align 8, !tbaa !11
  %26 = tail call i32 %25(ptr noundef %2, ptr noundef %2, i32 noundef %6) #6
  %27 = sitofp i32 %26 to double
  %28 = tail call nsz double @llvm.sqrt.f64(double %27)
  %29 = fdiv nsz double %24, %28
  %30 = fptosi double %29 to i32
  %31 = lshr i32 %30, 12
  %32 = trunc i32 %31 to i16
  ret i16 %32
}